target datalayout = "e-m:e-p270:32:32-p271:32:32-p272:64:64-i64:64-i128:128-f80:128-n8:16:32:64-S128"
target triple = "x86_64-pc-linux-gnu"

%struct._OGLSDOps = type { %struct._SurfaceDataOps, ptr, ptr, i32, i32, i8, i8, i32, i32, i32, i32, i32, i32, i32, i32, i32, i32, i32 }
%struct._SurfaceDataOps = type { ptr, ptr, ptr, ptr, ptr, ptr, ptr }

@j2d_glUseProgramObjectARB = external global ptr, align 8
@j2d_glGetUniformLocationARB = external global ptr, align 8
@j2d_glUniform4fARB = external global ptr, align 8
@lookupPrograms = internal global [8 x i32] zeroinitializer, align 16
@.str.4 = private unnamed_addr constant [7 x i8] c"offset\00", align 1
@j2d_glActiveTextureARB = external global ptr, align 8
@lutTextureID = internal global i32 0, align 4
@j2d_glBindTexture = external global ptr, align 8
@j2d_glEnable = external global ptr, align 8
@j2d_glTexSubImage2D = external global ptr, align 8
@.str.7 = private unnamed_addr constant [7 x i8] c"2DRect\00", align 1
@.str.8 = private unnamed_addr constant [3 x i8] c"2D\00", align 1
@.str.12 = private unnamed_addr constant [10 x i8] c"baseImage\00", align 1
@j2d_glUniform1iARB = external global ptr, align 8
@.str.14 = private unnamed_addr constant [1 x i8] zeroinitializer, align 1
@.str.15 = private unnamed_addr constant [28 x i8] c"srcColor.rgb /= srcColor.a;\00", align 1
@.str.16 = private unnamed_addr constant [24 x i8] c"result.rgb *= result.a;\00", align 1
@.str.19 = private unnamed_addr constant [23 x i8] c"result.a = srcColor.a;\00", align 1
@.str.20 = private unnamed_addr constant [62 x i8] c"result.a = texture2D(lookupTable, vec2(srcIndex.a, 0.875)).r;\00", align 1
@lookupShaderSource = internal global ptr @.str.23, align 8
@.str.21 = private unnamed_addr constant [57 x i8] c"OGLBufImgOps_CreateLookupProgram: error creating program\00", align 1
@.str.22 = private unnamed_addr constant [12 x i8] c"lookupTable\00", align 1

; Function Attrs: nounwind uwtable
define internal i32 @OGLBufImgOps_CreateLookupProgram(i32 noundef %0) #0 {
  %2 = alloca i32, align 4
  %3 = alloca i32, align 4
  %4 = alloca i32, align 4
  %5 = alloca i32, align 4
  %6 = alloca ptr, align 8
  %7 = alloca ptr, align 8
  %8 = alloca ptr, align 8
  %9 = alloca ptr, align 8
  %10 = alloca [2000 x i8], align 16
  store i32 %0, ptr %3, align 4
  %11 = load i32, ptr %3, align 4
  %12 = and i32 %11, 1
  %13 = icmp ne i32 %12, 0
  %14 = select i1 %13, ptr @.str.7, ptr @.str.8
  store ptr %14, ptr %6, align 8
  store ptr @.str.14, ptr %8, align 8
  store ptr @.str.14, ptr %9, align 8
  %15 = load i32, ptr %3, align 4
  %16 = and i32 %15, 2
  %17 = icmp ne i32 %16, 0
  br i1 %17, label %18, label %19

18:                                               ; preds = %1
  store ptr @.str.19, ptr %7, align 8
  br label %20

19:                                               ; preds = %1
  store ptr @.str.20, ptr %7, align 8
  br label %20

20:                                               ; preds = %19, %18
  %21 = load i32, ptr %3, align 4
  %22 = and i32 %21, 4
  %23 = icmp ne i32 %22, 0
  br i1 %23, label %24, label %25

24:                                               ; preds = %20
  store ptr @.str.15, ptr %8, align 8
  store ptr @.str.16, ptr %9, align 8
  br label %25

25:                                               ; preds = %24, %20
  %26 = getelementptr inbounds [2000 x i8], ptr %10, i64 0, i64 0
  %27 = load ptr, ptr @lookupShaderSource, align 8
  %28 = load ptr, ptr %6, align 8
  %29 = load ptr, ptr %6, align 8
  %30 = load ptr, ptr %8, align 8
  %31 = load ptr, ptr %7, align 8
  %32 = load ptr, ptr %9, align 8
  %33 = call i32 (ptr, i64, ptr, ...) @snprintf(ptr noundef %26, i64 noundef 2000, ptr noundef %27, ptr noundef %28, ptr noundef %29, ptr noundef %30, ptr noundef %31, ptr noundef %32) #3
  %34 = getelementptr inbounds [2000 x i8], ptr %10, i64 0, i64 0
  %35 = call i32 @OGLContext_CreateFragmentProgram(ptr noundef %34)
  store i32 %35, ptr %4, align 4
  %36 = load i32, ptr %4, align 4
  %37 = icmp eq i32 %36, 0
  br i1 %37, label %38, label %39

38:                                               ; preds = %25
  call void (i32, i8, ptr, ...) @J2dTraceImpl(i32 noundef 1, i8 noundef zeroext 1, ptr noundef @.str.21)
  store i32 0, ptr %2, align 4
  br label %54

39:                                               ; preds = %25
  %40 = load ptr, ptr @j2d_glUseProgramObjectARB, align 8
  %41 = load i32, ptr %4, align 4
  call void %40(i32 noundef %41)
  %42 = load ptr, ptr @j2d_glGetUniformLocationARB, align 8
  %43 = load i32, ptr %4, align 4
  %44 = call i32 %42(i32 noundef %43, ptr noundef @.str.12)
  store i32 %44, ptr %5, align 4
  %45 = load ptr, ptr @j2d_glUniform1iARB, align 8
  %46 = load i32, ptr %5, align 4
  call void %45(i32 noundef %46, i32 noundef 0)
  %47 = load ptr, ptr @j2d_glGetUniformLocationARB, align 8
  %48 = load i32, ptr %4, align 4
  %49 = call i32 %47(i32 noundef %48, ptr noundef @.str.22)
  store i32 %49, ptr %5, align 4
  %50 = load ptr, ptr @j2d_glUniform1iARB, align 8
  %51 = load i32, ptr %5, align 4
  call void %50(i32 noundef %51, i32 noundef 1)
  %52 = load ptr, ptr @j2d_glUseProgramObjectARB, align 8
  call void %52(i32 noundef 0)
  %53 = load i32, ptr %4, align 4
  store i32 %53, ptr %2, align 4
  br label %54

54:                                               ; preds = %39, %38
  %55 = load i32, ptr %2, align 4
  ret i32 %55
}

; Function Attrs: nounwind uwtable
define hidden void @OGLBufImgOps_EnableLookupOp(ptr noundef %0, i64 noundef %1, i8 noundef zeroext %2, i8 noundef zeroext %3, i32 noundef %4, i32 noundef %5, i32 noundef %6, ptr noundef %7) #0 {
  %9 = alloca ptr, align 8
  %10 = alloca i64, align 8
  %11 = alloca i8, align 1
  %12 = alloca i8, align 1
  %13 = alloca i32, align 4
  %14 = alloca i32, align 4
  %15 = alloca i32, align 4
  %16 = alloca ptr, align 8
  %17 = alloca ptr, align 8
  %18 = alloca i32, align 4
  %19 = alloca i32, align 4
  %20 = alloca float, align 4
  %21 = alloca i32, align 4
  %22 = alloca [4 x ptr], align 16
  %23 = alloca i32, align 4
  %24 = alloca i32, align 4
  store ptr %0, ptr %9, align 8
  store i64 %1, ptr %10, align 8
  store i8 %2, ptr %11, align 1
  store i8 %3, ptr %12, align 1
  store i32 %4, ptr %13, align 4
  store i32 %5, ptr %14, align 4
  store i32 %6, ptr %15, align 4
  store ptr %7, ptr %16, align 8
  %25 = load i64, ptr %10, align 8
  %26 = inttoptr i64 %25 to ptr
  store ptr %26, ptr %17, align 8
  %27 = load i8, ptr %12, align 1
  %28 = zext i8 %27 to i32
  %29 = icmp ne i32 %28, 0
  %30 = select i1 %29, i32 2, i32 1
  store i32 %30, ptr %18, align 4
  store i32 0, ptr %24, align 4
  store i32 0, ptr %23, align 4
  br label %31

31:                                               ; preds = %38, %8
  %32 = load i32, ptr %23, align 4
  %33 = icmp slt i32 %32, 4
  br i1 %33, label %34, label %41

34:                                               ; preds = %31
  %35 = load i32, ptr %23, align 4
  %36 = sext i32 %35 to i64
  %37 = getelementptr inbounds [4 x ptr], ptr %22, i64 0, i64 %36
  store ptr null, ptr %37, align 8
  br label %38

38:                                               ; preds = %34
  %39 = load i32, ptr %23, align 4
  %40 = add nsw i32 %39, 1
  store i32 %40, ptr %23, align 4
  br label %31, !llvm.loop !9

41:                                               ; preds = %31
  %42 = load ptr, ptr %9, align 8
  %43 = icmp eq ptr %42, null
  br i1 %43, label %44, label %45

44:                                               ; preds = %41
  br label %223

45:                                               ; preds = %41
  br label %46

46:                                               ; preds = %45
  br label %47

47:                                               ; preds = %46
  br label %48

48:                                               ; preds = %47
  %49 = load ptr, ptr %17, align 8
  %50 = icmp eq ptr %49, null
  br i1 %50, label %51, label %52

51:                                               ; preds = %48
  br label %223

52:                                               ; preds = %48
  br label %53

53:                                               ; preds = %52
  br label %54

54:                                               ; preds = %53
  br label %55

55:                                               ; preds = %54
  call void @OGLRenderQueue_CheckPreviousOp(i32 noundef -1)
  %56 = load ptr, ptr %17, align 8
  %57 = getelementptr inbounds %struct._OGLSDOps, ptr %56, i32 0, i32 14
  %58 = load i32, ptr %57, align 8
  %59 = icmp eq i32 %58, 34037
  br i1 %59, label %60, label %63

60:                                               ; preds = %55
  %61 = load i32, ptr %24, align 4
  %62 = or i32 %61, 1
  store i32 %62, ptr %24, align 4
  br label %63

63:                                               ; preds = %60, %55
  %64 = load i32, ptr %13, align 4
  %65 = icmp ne i32 %64, 4
  br i1 %65, label %66, label %69

66:                                               ; preds = %63
  %67 = load i32, ptr %24, align 4
  %68 = or i32 %67, 2
  store i32 %68, ptr %24, align 4
  br label %69

69:                                               ; preds = %66, %63
  %70 = load i8, ptr %11, align 1
  %71 = icmp ne i8 %70, 0
  br i1 %71, label %72, label %75

72:                                               ; preds = %69
  %73 = load i32, ptr %24, align 4
  %74 = or i32 %73, 4
  store i32 %74, ptr %24, align 4
  br label %75

75:                                               ; preds = %72, %69
  %76 = load i32, ptr %24, align 4
  %77 = sext i32 %76 to i64
  %78 = getelementptr inbounds [8 x i32], ptr @lookupPrograms, i64 0, i64 %77
  %79 = load i32, ptr %78, align 4
  %80 = icmp eq i32 %79, 0
  br i1 %80, label %81, label %94

81:                                               ; preds = %75
  %82 = load i32, ptr %24, align 4
  %83 = call i32 @OGLBufImgOps_CreateLookupProgram(i32 noundef %82)
  %84 = load i32, ptr %24, align 4
  %85 = sext i32 %84 to i64
  %86 = getelementptr inbounds [8 x i32], ptr @lookupPrograms, i64 0, i64 %85
  store i32 %83, ptr %86, align 4
  %87 = load i32, ptr %24, align 4
  %88 = sext i32 %87 to i64
  %89 = getelementptr inbounds [8 x i32], ptr @lookupPrograms, i64 0, i64 %88
  %90 = load i32, ptr %89, align 4
  %91 = icmp eq i32 %90, 0
  br i1 %91, label %92, label %93

92:                                               ; preds = %81
  br label %223

93:                                               ; preds = %81
  br label %94

94:                                               ; preds = %93, %75
  %95 = load i32, ptr %24, align 4
  %96 = sext i32 %95 to i64
  %97 = getelementptr inbounds [8 x i32], ptr @lookupPrograms, i64 0, i64 %96
  %98 = load i32, ptr %97, align 4
  store i32 %98, ptr %19, align 4
  %99 = load ptr, ptr @j2d_glUseProgramObjectARB, align 8
  %100 = load i32, ptr %19, align 4
  call void %99(i32 noundef %100)
  %101 = load ptr, ptr @j2d_glGetUniformLocationARB, align 8
  %102 = load i32, ptr %19, align 4
  %103 = call i32 %101(i32 noundef %102, ptr noundef @.str.4)
  store i32 %103, ptr %21, align 4
  %104 = load i32, ptr %15, align 4
  %105 = sitofp i32 %104 to float
  %106 = fdiv float %105, 2.550000e+02
  store float %106, ptr %20, align 4
  %107 = load ptr, ptr @j2d_glUniform4fARB, align 8
  %108 = load i32, ptr %21, align 4
  %109 = load float, ptr %20, align 4
  %110 = load float, ptr %20, align 4
  %111 = load float, ptr %20, align 4
  %112 = load float, ptr %20, align 4
  call void %107(i32 noundef %108, float noundef %109, float noundef %110, float noundef %111, float noundef %112)
  %113 = load ptr, ptr @j2d_glActiveTextureARB, align 8
  call void %113(i32 noundef 33985)
  %114 = load i32, ptr @lutTextureID, align 4
  %115 = icmp eq i32 %114, 0
  br i1 %115, label %116, label %122

116:                                              ; preds = %94
  %117 = call i32 @OGLContext_CreateBlitTexture(i32 noundef 32834, i32 noundef 6409, i32 noundef 256, i32 noundef 4)
  store i32 %117, ptr @lutTextureID, align 4
  %118 = load i32, ptr @lutTextureID, align 4
  %119 = icmp eq i32 %118, 0
  br i1 %119, label %120, label %121

120:                                              ; preds = %116
  br label %223

121:                                              ; preds = %116
  br label %122

122:                                              ; preds = %121, %94
  %123 = load ptr, ptr @j2d_glBindTexture, align 8
  %124 = load i32, ptr @lutTextureID, align 4
  call void %123(i32 noundef 3553, i32 noundef %124)
  %125 = load ptr, ptr @j2d_glEnable, align 8
  call void %125(i32 noundef 3553)
  %126 = load i32, ptr %13, align 4
  %127 = icmp eq i32 %126, 1
  br i1 %127, label %128, label %142

128:                                              ; preds = %122
  store i32 0, ptr %23, align 4
  br label %129

129:                                              ; preds = %137, %128
  %130 = load i32, ptr %23, align 4
  %131 = icmp slt i32 %130, 3
  br i1 %131, label %132, label %140

132:                                              ; preds = %129
  %133 = load ptr, ptr %16, align 8
  %134 = load i32, ptr %23, align 4
  %135 = sext i32 %134 to i64
  %136 = getelementptr inbounds [4 x ptr], ptr %22, i64 0, i64 %135
  store ptr %133, ptr %136, align 8
  br label %137

137:                                              ; preds = %132
  %138 = load i32, ptr %23, align 4
  %139 = add nsw i32 %138, 1
  store i32 %139, ptr %23, align 4
  br label %129, !llvm.loop !10

140:                                              ; preds = %129
  %141 = getelementptr inbounds [4 x ptr], ptr %22, i64 0, i64 3
  store ptr null, ptr %141, align 8
  br label %195

142:                                              ; preds = %122
  %143 = load i32, ptr %13, align 4
  %144 = icmp eq i32 %143, 3
  br i1 %144, label %145, label %168

145:                                              ; preds = %142
  store i32 0, ptr %23, align 4
  br label %146

146:                                              ; preds = %163, %145
  %147 = load i32, ptr %23, align 4
  %148 = icmp slt i32 %147, 3
  br i1 %148, label %149, label %166

149:                                              ; preds = %146
  %150 = load ptr, ptr %16, align 8
  %151 = ptrtoint ptr %150 to i64
  %152 = load i32, ptr %23, align 4
  %153 = load i32, ptr %14, align 4
  %154 = mul nsw i32 %152, %153
  %155 = load i32, ptr %18, align 4
  %156 = mul nsw i32 %154, %155
  %157 = sext i32 %156 to i64
  %158 = add nsw i64 %151, %157
  %159 = inttoptr i64 %158 to ptr
  %160 = load i32, ptr %23, align 4
  %161 = sext i32 %160 to i64
  %162 = getelementptr inbounds [4 x ptr], ptr %22, i64 0, i64 %161
  store ptr %159, ptr %162, align 8
  br label %163

163:                                              ; preds = %149
  %164 = load i32, ptr %23, align 4
  %165 = add nsw i32 %164, 1
  store i32 %165, ptr %23, align 4
  br label %146, !llvm.loop !11

166:                                              ; preds = %146
  %167 = getelementptr inbounds [4 x ptr], ptr %22, i64 0, i64 3
  store ptr null, ptr %167, align 8
  br label %194

168:                                              ; preds = %142
  %169 = load i32, ptr %13, align 4
  %170 = icmp eq i32 %169, 4
  br i1 %170, label %171, label %193

171:                                              ; preds = %168
  store i32 0, ptr %23, align 4
  br label %172

172:                                              ; preds = %189, %171
  %173 = load i32, ptr %23, align 4
  %174 = icmp slt i32 %173, 4
  br i1 %174, label %175, label %192

175:                                              ; preds = %172
  %176 = load ptr, ptr %16, align 8
  %177 = ptrtoint ptr %176 to i64
  %178 = load i32, ptr %23, align 4
  %179 = load i32, ptr %14, align 4
  %180 = mul nsw i32 %178, %179
  %181 = load i32, ptr %18, align 4
  %182 = mul nsw i32 %180, %181
  %183 = sext i32 %182 to i64
  %184 = add nsw i64 %177, %183
  %185 = inttoptr i64 %184 to ptr
  %186 = load i32, ptr %23, align 4
  %187 = sext i32 %186 to i64
  %188 = getelementptr inbounds [4 x ptr], ptr %22, i64 0, i64 %187
  store ptr %185, ptr %188, align 8
  br label %189

189:                                              ; preds = %175
  %190 = load i32, ptr %23, align 4
  %191 = add nsw i32 %190, 1
  store i32 %191, ptr %23, align 4
  br label %172, !llvm.loop !12

192:                                              ; preds = %172
  br label %193

193:                                              ; preds = %192, %168
  br label %194

194:                                              ; preds = %193, %166
  br label %195

195:                                              ; preds = %194, %140
  store i32 0, ptr %23, align 4
  br label %196

196:                                              ; preds = %218, %195
  %197 = load i32, ptr %23, align 4
  %198 = icmp slt i32 %197, 4
  br i1 %198, label %199, label %221

199:                                              ; preds = %196
  %200 = load i32, ptr %23, align 4
  %201 = sext i32 %200 to i64
  %202 = getelementptr inbounds [4 x ptr], ptr %22, i64 0, i64 %201
  %203 = load ptr, ptr %202, align 8
  %204 = icmp eq ptr %203, null
  br i1 %204, label %205, label %206

205:                                              ; preds = %199
  br label %218

206:                                              ; preds = %199
  %207 = load ptr, ptr @j2d_glTexSubImage2D, align 8
  %208 = load i32, ptr %23, align 4
  %209 = load i32, ptr %14, align 4
  %210 = load i8, ptr %12, align 1
  %211 = zext i8 %210 to i32
  %212 = icmp ne i32 %211, 0
  %213 = select i1 %212, i32 5123, i32 5121
  %214 = load i32, ptr %23, align 4
  %215 = sext i32 %214 to i64
  %216 = getelementptr inbounds [4 x ptr], ptr %22, i64 0, i64 %215
  %217 = load ptr, ptr %216, align 8
  call void %207(i32 noundef 3553, i32 noundef 0, i32 noundef 0, i32 noundef %208, i32 noundef %209, i32 noundef 1, i32 noundef 6409, i32 noundef %213, ptr noundef %217)
  br label %218

218:                                              ; preds = %206, %205
  %219 = load i32, ptr %23, align 4
  %220 = add nsw i32 %219, 1
  store i32 %220, ptr %23, align 4
  br label %196, !llvm.loop !13

221:                                              ; preds = %196
  %222 = load ptr, ptr @j2d_glActiveTextureARB, align 8
  call void %222(i32 noundef 33984)
  br label %223

223:                                              ; preds = %221, %120, %92, %51, %44
  ret void
}