; Function Attrs: nounwind uwtable
define hidden void @OGLBufImgOps_EnableLookupOp(ptr noundef readnone %0, i64 noundef %1, i8 noundef zeroext %2, i8 noundef zeroext %3, i32 noundef %4, i32 noundef %5, i32 noundef %6, ptr noundef %7) local_unnamed_addr #0 {
  %9 = alloca [2000 x i8], align 16
  %10 = alloca [4 x ptr], align 16
  call void @llvm.memset.p0.i64(ptr noundef nonnull align 16 dereferenceable(32) %10, i8 0, i64 32, i1 false)
  %.not = icmp ne i8 %3, 0
  %11 = icmp eq ptr %0, null
  %12 = icmp eq i64 %1, 0
  %or.cond = or i1 %11, %12
  br i1 %or.cond, label %90, label %13

13:                                               ; preds = %8
  %14 = inttoptr i64 %1 to ptr
  tail call void @OGLRenderQueue_CheckPreviousOp(i32 noundef -1) #6
  %15 = getelementptr inbounds i8, ptr %14, i64 112
  %16 = load i32, ptr %15, align 8
  %17 = icmp eq i32 %16, 34037
  %spec.select = zext i1 %17 to i32
  %.not60 = icmp eq i32 %4, 4
  %18 = or disjoint i32 %spec.select, 2
  %.1 = select i1 %.not60, i32 %spec.select, i32 %18
  %.not61 = icmp eq i8 %2, 0
  %19 = or disjoint i32 %.1, 4
  %.2 = select i1 %.not61, i32 %.1, i32 %19
  %20 = zext nneg i32 %.2 to i64
  %21 = getelementptr inbounds [8 x i32], ptr @lookupPrograms, i64 0, i64 %20
  %22 = load i32, ptr %21, align 4
  %23 = icmp eq i32 %22, 0
  br i1 %23, label %24, label %39

24:                                               ; preds = %13
  call void @llvm.lifetime.start.p0(i64 2000, ptr nonnull %9)
  %25 = and i32 %.2, 1
  %.not.i = icmp eq i32 %25, 0
  %26 = select i1 %.not.i, ptr @.str.8, ptr @.str.7
  %27 = and i32 %.2, 2
  %.not19.i = icmp eq i32 %27, 0
  %.str.20..str.19.i = select i1 %.not19.i, ptr @.str.20, ptr @.str.19
  %.not20.i = icmp ult i32 %.2, 4
  %.015.i = select i1 %.not20.i, ptr @.str.14, ptr @.str.15
  %.0.i = select i1 %.not20.i, ptr @.str.14, ptr @.str.16
  %28 = call i32 (ptr, i64, ptr, ...) @snprintf(ptr noundef nonnull dereferenceable(1) %9, i64 noundef 2000, ptr noundef nonnull @.str.23, ptr noundef nonnull %26, ptr noundef nonnull %26, ptr noundef nonnull %.015.i, ptr noundef nonnull %.str.20..str.19.i, ptr noundef nonnull %.0.i) #6
  %29 = call i32 @OGLContext_CreateFragmentProgram(ptr noundef nonnull %9) #6
  %30 = icmp eq i32 %29, 0
  br i1 %30, label %OGLBufImgOps_CreateLookupProgram.exit.thread, label %OGLBufImgOps_CreateLookupProgram.exit

OGLBufImgOps_CreateLookupProgram.exit.thread:     ; preds = %24
  call void (i32, i8, ptr, ...) @J2dTraceImpl(i32 noundef 1, i8 noundef zeroext 1, ptr noundef nonnull @.str.21) #6
  call void @llvm.lifetime.end.p0(i64 2000, ptr nonnull %9)
  store i32 0, ptr %21, align 4
  br label %90

OGLBufImgOps_CreateLookupProgram.exit:            ; preds = %24
  %31 = load ptr, ptr @j2d_glUseProgramObjectARB, align 8
  call void %31(i32 noundef %29) #6
  %32 = load ptr, ptr @j2d_glGetUniformLocationARB, align 8
  %33 = call i32 %32(i32 noundef %29, ptr noundef nonnull @.str.12) #6
  %34 = load ptr, ptr @j2d_glUniform1iARB, align 8
  call void %34(i32 noundef %33, i32 noundef 0) #6
  %35 = load ptr, ptr @j2d_glGetUniformLocationARB, align 8
  %36 = call i32 %35(i32 noundef %29, ptr noundef nonnull @.str.22) #6
  %37 = load ptr, ptr @j2d_glUniform1iARB, align 8
  call void %37(i32 noundef %36, i32 noundef 1) #6
  %38 = load ptr, ptr @j2d_glUseProgramObjectARB, align 8
  call void %38(i32 noundef 0) #6
  call void @llvm.lifetime.end.p0(i64 2000, ptr nonnull %9)
  store i32 %29, ptr %21, align 4
  br label %39

39:                                               ; preds = %OGLBufImgOps_CreateLookupProgram.exit, %13
  %40 = phi i32 [ %29, %OGLBufImgOps_CreateLookupProgram.exit ], [ %22, %13 ]
  %41 = load ptr, ptr @j2d_glUseProgramObjectARB, align 8
  call void %41(i32 noundef %40) #6
  %42 = load ptr, ptr @j2d_glGetUniformLocationARB, align 8
  %43 = call i32 %42(i32 noundef %40, ptr noundef nonnull @.str.4) #6
  %44 = sitofp i32 %6 to float
  %45 = fdiv float %44, 2.550000e+02
  %46 = load ptr, ptr @j2d_glUniform4fARB, align 8
  call void %46(i32 noundef %43, float noundef %45, float noundef %45, float noundef %45, float noundef %45) #6
  %47 = load ptr, ptr @j2d_glActiveTextureARB, align 8
  call void %47(i32 noundef 33985) #6
  %48 = load i32, ptr @lutTextureID, align 4
  %49 = icmp eq i32 %48, 0
  br i1 %49, label %50, label %53

50:                                               ; preds = %39
  %51 = call i32 @OGLContext_CreateBlitTexture(i32 noundef 32834, i32 noundef 6409, i32 noundef 256, i32 noundef 4) #6
  store i32 %51, ptr @lutTextureID, align 4
  %52 = icmp eq i32 %51, 0
  br i1 %52, label %90, label %53

53:                                               ; preds = %50, %39
  %54 = phi i32 [ %51, %50 ], [ %48, %39 ]
  %55 = load ptr, ptr @j2d_glBindTexture, align 8
  call void %55(i32 noundef 3553, i32 noundef %54) #6
  %56 = load ptr, ptr @j2d_glEnable, align 8
  call void %56(i32 noundef 3553) #6
  switch i32 %4, label %.loopexit [
    i32 1, label %.preheader
    i32 3, label %.preheader62
    i32 4, label %.preheader63
  ]

.preheader63:                                     ; preds = %53
  %57 = ptrtoint ptr %7 to i64
  %58 = zext i1 %.not to i32
  br label %70

.preheader62:                                     ; preds = %53
  %59 = ptrtoint ptr %7 to i64
  %60 = zext i1 %.not to i32
  br label %62

.preheader:                                       ; preds = %53, %.preheader
  %indvars.iv75 = phi i64 [ %indvars.iv.next76, %.preheader ], [ 0, %53 ]
  %61 = getelementptr inbounds [4 x ptr], ptr %10, i64 0, i64 %indvars.iv75
  store ptr %7, ptr %61, align 8
  %indvars.iv.next76 = add nuw nsw i64 %indvars.iv75, 1
  %exitcond78.not = icmp eq i64 %indvars.iv.next76, 3
  br i1 %exitcond78.not, label %.loopexit.sink.split, label %.preheader, !llvm.loop !9

62:                                               ; preds = %.preheader62, %62
  %indvars.iv71 = phi i64 [ 0, %.preheader62 ], [ %indvars.iv.next72, %62 ]
  %63 = trunc i64 %indvars.iv71 to i32
  %64 = mul i32 %63, %5
  %65 = shl i32 %64, %60
  %66 = sext i32 %65 to i64
  %67 = add nsw i64 %66, %59
  %68 = inttoptr i64 %67 to ptr
  %69 = getelementptr inbounds [4 x ptr], ptr %10, i64 0, i64 %indvars.iv71
  store ptr %68, ptr %69, align 8
  %indvars.iv.next72 = add nuw nsw i64 %indvars.iv71, 1
  %exitcond74.not = icmp eq i64 %indvars.iv.next72, 3
  br i1 %exitcond74.not, label %.loopexit.sink.split, label %62, !llvm.loop !10

70:                                               ; preds = %.preheader63, %70
  %indvars.iv = phi i64 [ 0, %.preheader63 ], [ %indvars.iv.next, %70 ]
  %71 = trunc i64 %indvars.iv to i32
  %72 = mul i32 %71, %5
  %73 = shl i32 %72, %58
  %74 = sext i32 %73 to i64
  %75 = add nsw i64 %74, %57
  %76 = inttoptr i64 %75 to ptr
  %77 = getelementptr inbounds [4 x ptr], ptr %10, i64 0, i64 %indvars.iv
  store ptr %76, ptr %77, align 8
  %indvars.iv.next = add nuw nsw i64 %indvars.iv, 1
  %exitcond.not = icmp eq i64 %indvars.iv.next, 4
  br i1 %exitcond.not, label %.loopexit, label %70, !llvm.loop !11

.loopexit.sink.split:                             ; preds = %62, %.preheader
  %78 = getelementptr inbounds i8, ptr %10, i64 24
  store ptr null, ptr %78, align 8
  br label %.loopexit

.loopexit:                                        ; preds = %70, %.loopexit.sink.split, %53
  %79 = select i1 %.not, i32 5123, i32 5121
  br label %80

80:                                               ; preds = %.loopexit, %87
  %indvars.iv79 = phi i64 [ 0, %.loopexit ], [ %indvars.iv.next80, %87 ]
  %81 = getelementptr inbounds [4 x ptr], ptr %10, i64 0, i64 %indvars.iv79
  %82 = load ptr, ptr %81, align 8
  %83 = icmp eq ptr %82, null
  br i1 %83, label %87, label %84

84:                                               ; preds = %80
  %85 = load ptr, ptr @j2d_glTexSubImage2D, align 8
  %86 = trunc nuw nsw i64 %indvars.iv79 to i32
  call void %85(i32 noundef 3553, i32 noundef 0, i32 noundef 0, i32 noundef %86, i32 noundef %5, i32 noundef 1, i32 noundef 6409, i32 noundef %79, ptr noundef nonnull %82) #6
  br label %87

87:                                               ; preds = %80, %84
  %indvars.iv.next80 = add nuw nsw i64 %indvars.iv79, 1
  %exitcond82.not = icmp eq i64 %indvars.iv.next80, 4
  br i1 %exitcond82.not, label %88, label %80, !llvm.loop !12

88:                                               ; preds = %87
  %89 = load ptr, ptr @j2d_glActiveTextureARB, align 8
  call void %89(i32 noundef 33984) #6
  br label %90

90:                                               ; preds = %OGLBufImgOps_CreateLookupProgram.exit.thread, %50, %8, %88
  ret void
}